ccopy_reg
_reconstructor
p1
(cargparse
Namespace
p2
c__builtin__
object
p3
NtRp4
(dp5
S'grad_clip'
p6
F5
sS'vocab_size'
p7
I50
sS'num_layers'
p8
I2
sS'num_epochs'
p9
I50
sS'block_size'
p10
I2
sS'init_from'
p11
NsS'data_dir'
p12
S'data/ptb'
p13
sS'transform'
p14
S'Fourier'
p15
sS'decay_rate'
p16
F0.96999999999999997
sS'quant'
p17
S'bit'
p18
sS'log_dir'
p19
S'logs'
p20
sS'input_keep_prob'
p21
F1
sS'output_keep_prob'
p22
F1
sS'learning_rate'
p23
F0.002
sS'batch_size'
p24
I50
sS'test_flag'
p25
I00
sS'w_bit'
p26
I4
sS'save_every'
p27
I1000
sS'rnn_size'
p28
I128
sS'f_bit'
p29
I4
sS'seq_length'
p30
I50
sS'save_dir'
p31
S'save_bit_4'
p32
sS'model'
p33
S'cirlstm'
p34
sb.